CCS PCM C Compiler, Version 5.076, 56587               01-abr.-20 18:24

               Filename:   D:\Proyectos\Smart Diana\main.lst

               ROM used:   980 words (12%)
                           Largest free fragment is 2048
               RAM used:   33 (9%) at main() level
                           47 (13%) worst case
               Stack used: 1 locations
               Stack size: 8

*
0000:  MOVLW  02
0001:  MOVWF  0A
0002:  GOTO   29F
0003:  NOP
.................... #include <main.h> 
.................... #include <16F877A.h> 
.................... //////////// Standard Header file for the PIC16F877A device //////////////// 
.................... /////////////////////////////////////////////////////////////////////////// 
.................... ////        (C) Copyright 1996, 2014 Custom Computer Services          //// 
.................... //// This source code may only be used by licensed users of the CCS C  //// 
.................... //// compiler.  This source code may only be distributed to other      //// 
.................... //// licensed users of the CCS C compiler.  No other use, reproduction //// 
.................... //// or distribution is permitted without written permission.          //// 
.................... //// Derivative programs created using this software in object code    //// 
.................... //// form are not restricted in any way.                               //// 
.................... /////////////////////////////////////////////////////////////////////////// 
.................... #device PIC16F877A 
0004:  MOVLW  B6
0005:  MOVWF  77
0006:  CLRF   7A
0007:  CLRF   79
0008:  CLRF   78
0009:  MOVF   38,W
000A:  IORWF  39,W
000B:  IORWF  3A,W
000C:  IORWF  3B,W
000D:  BTFSS  03.2
000E:  GOTO   011
000F:  CLRF   77
0010:  GOTO   01E
0011:  BCF    03.0
0012:  BTFSC  78.7
0013:  GOTO   01D
0014:  RLF    38,F
0015:  RLF    39,F
0016:  RLF    3A,F
0017:  RLF    3B,F
0018:  RLF    7A,F
0019:  RLF    79,F
001A:  RLF    78,F
001B:  DECFSZ 77,F
001C:  GOTO   011
001D:  BCF    78.7
001E:  RETURN
001F:  MOVF   3C,W
0020:  BTFSC  03.2
0021:  GOTO   08F
0022:  MOVWF  44
0023:  MOVF   40,W
0024:  BTFSC  03.2
0025:  GOTO   08F
0026:  ADDWF  44,F
0027:  BTFSC  03.0
0028:  GOTO   030
0029:  MOVLW  7F
002A:  SUBWF  44,F
002B:  BTFSS  03.0
002C:  GOTO   08F
002D:  BTFSC  03.2
002E:  GOTO   08F
002F:  GOTO   034
0030:  MOVLW  81
0031:  ADDWF  44,F
0032:  BTFSC  03.0
0033:  GOTO   08F
0034:  MOVF   44,W
0035:  MOVWF  77
0036:  CLRF   78
0037:  CLRF   79
0038:  CLRF   7A
0039:  MOVF   3D,W
003A:  MOVWF  48
003B:  BSF    48.7
003C:  MOVF   3E,W
003D:  MOVWF  47
003E:  MOVF   3F,W
003F:  MOVWF  46
0040:  MOVLW  18
0041:  MOVWF  44
0042:  CLRF   45
0043:  BTFSS  46.0
0044:  GOTO   05D
0045:  MOVF   43,W
0046:  ADDWF  7A,F
0047:  BTFSS  03.0
0048:  GOTO   04F
0049:  INCF   79,F
004A:  BTFSS  03.2
004B:  GOTO   04F
004C:  INCF   78,F
004D:  BTFSC  03.2
004E:  BSF    45.7
004F:  MOVF   42,W
0050:  ADDWF  79,F
0051:  BTFSS  03.0
0052:  GOTO   056
0053:  INCF   78,F
0054:  BTFSC  03.2
0055:  BSF    45.7
0056:  MOVF   41,W
0057:  MOVWF  3E
0058:  BSF    3E.7
0059:  MOVF   3E,W
005A:  ADDWF  78,F
005B:  BTFSC  03.0
005C:  BSF    45.7
005D:  RLF    45,F
005E:  RRF    78,F
005F:  RRF    79,F
0060:  RRF    7A,F
0061:  RRF    48,F
0062:  RRF    47,F
0063:  RRF    46,F
0064:  BCF    03.0
0065:  DECFSZ 44,F
0066:  GOTO   042
0067:  MOVLW  01
0068:  ADDWF  77,F
0069:  BTFSC  03.0
006A:  GOTO   08F
006B:  BTFSC  78.7
006C:  GOTO   074
006D:  RLF    48,F
006E:  RLF    7A,F
006F:  RLF    79,F
0070:  RLF    78,F
0071:  DECF   77,F
0072:  BTFSC  03.2
0073:  GOTO   08F
0074:  BTFSS  48.7
0075:  GOTO   085
0076:  INCF   7A,F
0077:  BTFSS  03.2
0078:  GOTO   085
0079:  INCF   79,F
007A:  BTFSS  03.2
007B:  GOTO   085
007C:  INCF   78,F
007D:  BTFSS  03.2
007E:  GOTO   085
007F:  RRF    78,F
0080:  RRF    79,F
0081:  RRF    7A,F
0082:  INCF   77,F
0083:  BTFSC  03.2
0084:  GOTO   08F
0085:  MOVF   3D,W
0086:  MOVWF  45
0087:  MOVF   41,W
0088:  XORWF  45,F
0089:  BTFSS  45.7
008A:  GOTO   08D
008B:  BSF    78.7
008C:  GOTO   093
008D:  BCF    78.7
008E:  GOTO   093
008F:  CLRF   77
0090:  CLRF   78
0091:  CLRF   79
0092:  CLRF   7A
0093:  RETURN
0094:  MOVLW  80
0095:  BTFSC  03.1
0096:  XORWF  3D,F
0097:  CLRF   42
0098:  CLRF   43
0099:  MOVF   39,W
009A:  MOVWF  41
009B:  MOVF   3D,W
009C:  XORWF  41,F
009D:  MOVF   38,W
009E:  BTFSC  03.2
009F:  GOTO   184
00A0:  MOVWF  40
00A1:  MOVWF  77
00A2:  MOVF   3C,W
00A3:  BTFSC  03.2
00A4:  GOTO   18D
00A5:  SUBWF  40,F
00A6:  BTFSC  03.2
00A7:  GOTO   129
00A8:  BTFSS  03.0
00A9:  GOTO   0E7
00AA:  MOVF   3D,W
00AB:  MOVWF  46
00AC:  BSF    46.7
00AD:  MOVF   3E,W
00AE:  MOVWF  45
00AF:  MOVF   3F,W
00B0:  MOVWF  44
00B1:  CLRF   43
00B2:  BCF    03.0
00B3:  RRF    46,F
00B4:  RRF    45,F
00B5:  RRF    44,F
00B6:  RRF    43,F
00B7:  DECFSZ 40,F
00B8:  GOTO   0B1
00B9:  BTFSS  41.7
00BA:  GOTO   0BE
00BB:  BSF    42.0
00BC:  GOTO   1A1
00BD:  BCF    42.0
00BE:  BCF    40.0
00BF:  BSF    42.4
00C0:  MOVLW  3B
00C1:  MOVWF  04
00C2:  BCF    03.7
00C3:  GOTO   1B6
00C4:  BCF    42.4
00C5:  BTFSC  41.7
00C6:  GOTO   0D1
00C7:  BTFSS  40.0
00C8:  GOTO   0DC
00C9:  RRF    46,F
00CA:  RRF    45,F
00CB:  RRF    44,F
00CC:  RRF    43,F
00CD:  INCF   77,F
00CE:  BTFSC  03.2
00CF:  GOTO   19C
00D0:  GOTO   0DC
00D1:  BTFSC  46.7
00D2:  GOTO   0DF
00D3:  BCF    03.0
00D4:  RLF    43,F
00D5:  RLF    44,F
00D6:  RLF    45,F
00D7:  RLF    46,F
00D8:  DECF   77,F
00D9:  BTFSC  03.2
00DA:  GOTO   19C
00DB:  GOTO   0D1
00DC:  BSF    42.6
00DD:  GOTO   149
00DE:  BCF    42.6
00DF:  MOVF   39,W
00E0:  MOVWF  41
00E1:  BTFSS  41.7
00E2:  GOTO   0E5
00E3:  BSF    46.7
00E4:  GOTO   195
00E5:  BCF    46.7
00E6:  GOTO   195
00E7:  MOVF   3C,W
00E8:  MOVWF  40
00E9:  MOVWF  77
00EA:  MOVF   38,W
00EB:  SUBWF  40,F
00EC:  MOVF   39,W
00ED:  MOVWF  46
00EE:  BSF    46.7
00EF:  MOVF   3A,W
00F0:  MOVWF  45
00F1:  MOVF   3B,W
00F2:  MOVWF  44
00F3:  CLRF   43
00F4:  BCF    03.0
00F5:  RRF    46,F
00F6:  RRF    45,F
00F7:  RRF    44,F
00F8:  RRF    43,F
00F9:  DECFSZ 40,F
00FA:  GOTO   0F3
00FB:  BTFSS  41.7
00FC:  GOTO   100
00FD:  BSF    42.1
00FE:  GOTO   1A1
00FF:  BCF    42.1
0100:  BCF    40.0
0101:  BSF    42.5
0102:  MOVLW  3F
0103:  MOVWF  04
0104:  BCF    03.7
0105:  GOTO   1B6
0106:  BCF    42.5
0107:  BTFSC  41.7
0108:  GOTO   113
0109:  BTFSS  40.0
010A:  GOTO   11E
010B:  RRF    46,F
010C:  RRF    45,F
010D:  RRF    44,F
010E:  RRF    43,F
010F:  INCF   77,F
0110:  BTFSC  03.2
0111:  GOTO   19C
0112:  GOTO   11E
0113:  BTFSC  46.7
0114:  GOTO   121
0115:  BCF    03.0
0116:  RLF    43,F
0117:  RLF    44,F
0118:  RLF    45,F
0119:  RLF    46,F
011A:  DECF   77,F
011B:  BTFSC  03.2
011C:  GOTO   19C
011D:  GOTO   113
011E:  BSF    42.7
011F:  GOTO   149
0120:  BCF    42.7
0121:  MOVF   3D,W
0122:  MOVWF  41
0123:  BTFSS  41.7
0124:  GOTO   127
0125:  BSF    46.7
0126:  GOTO   195
0127:  BCF    46.7
0128:  GOTO   195
0129:  MOVF   3D,W
012A:  MOVWF  46
012B:  BSF    46.7
012C:  MOVF   3E,W
012D:  MOVWF  45
012E:  MOVF   3F,W
012F:  MOVWF  44
0130:  BTFSS  41.7
0131:  GOTO   136
0132:  BCF    46.7
0133:  BSF    42.2
0134:  GOTO   1A1
0135:  BCF    42.2
0136:  CLRF   43
0137:  BCF    40.0
0138:  MOVLW  3B
0139:  MOVWF  04
013A:  BCF    03.7
013B:  GOTO   1B6
013C:  BTFSC  41.7
013D:  GOTO   15F
013E:  MOVF   39,W
013F:  MOVWF  41
0140:  BTFSS  40.0
0141:  GOTO   149
0142:  RRF    46,F
0143:  RRF    45,F
0144:  RRF    44,F
0145:  RRF    43,F
0146:  INCF   77,F
0147:  BTFSC  03.2
0148:  GOTO   19C
0149:  BTFSS  43.7
014A:  GOTO   15A
014B:  INCF   44,F
014C:  BTFSS  03.2
014D:  GOTO   15A
014E:  INCF   45,F
014F:  BTFSS  03.2
0150:  GOTO   15A
0151:  INCF   46,F
0152:  BTFSS  03.2
0153:  GOTO   15A
0154:  RRF    46,F
0155:  RRF    45,F
0156:  RRF    44,F
0157:  INCF   77,F
0158:  BTFSC  03.2
0159:  GOTO   19C
015A:  BTFSC  42.6
015B:  GOTO   0DE
015C:  BTFSC  42.7
015D:  GOTO   120
015E:  GOTO   17E
015F:  MOVLW  80
0160:  XORWF  46,F
0161:  BTFSS  46.7
0162:  GOTO   167
0163:  GOTO   1A1
0164:  MOVF   3D,W
0165:  MOVWF  41
0166:  GOTO   174
0167:  MOVF   39,W
0168:  MOVWF  41
0169:  MOVF   46,F
016A:  BTFSS  03.2
016B:  GOTO   174
016C:  MOVF   45,F
016D:  BTFSS  03.2
016E:  GOTO   174
016F:  MOVF   44,F
0170:  BTFSS  03.2
0171:  GOTO   174
0172:  CLRF   77
0173:  GOTO   195
0174:  BTFSC  46.7
0175:  GOTO   17E
0176:  BCF    03.0
0177:  RLF    43,F
0178:  RLF    44,F
0179:  RLF    45,F
017A:  RLF    46,F
017B:  DECFSZ 77,F
017C:  GOTO   174
017D:  GOTO   19C
017E:  BTFSS  41.7
017F:  GOTO   182
0180:  BSF    46.7
0181:  GOTO   195
0182:  BCF    46.7
0183:  GOTO   195
0184:  MOVF   3C,W
0185:  MOVWF  77
0186:  MOVF   3D,W
0187:  MOVWF  46
0188:  MOVF   3E,W
0189:  MOVWF  45
018A:  MOVF   3F,W
018B:  MOVWF  44
018C:  GOTO   195
018D:  MOVF   38,W
018E:  MOVWF  77
018F:  MOVF   39,W
0190:  MOVWF  46
0191:  MOVF   3A,W
0192:  MOVWF  45
0193:  MOVF   3B,W
0194:  MOVWF  44
0195:  MOVF   46,W
0196:  MOVWF  78
0197:  MOVF   45,W
0198:  MOVWF  79
0199:  MOVF   44,W
019A:  MOVWF  7A
019B:  GOTO   1D4
019C:  CLRF   77
019D:  CLRF   78
019E:  CLRF   79
019F:  CLRF   7A
01A0:  GOTO   1D4
01A1:  CLRF   43
01A2:  COMF   44,F
01A3:  COMF   45,F
01A4:  COMF   46,F
01A5:  COMF   43,F
01A6:  INCF   43,F
01A7:  BTFSS  03.2
01A8:  GOTO   1AF
01A9:  INCF   44,F
01AA:  BTFSS  03.2
01AB:  GOTO   1AF
01AC:  INCF   45,F
01AD:  BTFSC  03.2
01AE:  INCF   46,F
01AF:  BTFSC  42.0
01B0:  GOTO   0BD
01B1:  BTFSC  42.1
01B2:  GOTO   0FF
01B3:  BTFSC  42.2
01B4:  GOTO   135
01B5:  GOTO   164
01B6:  MOVF   00,W
01B7:  ADDWF  44,F
01B8:  BTFSS  03.0
01B9:  GOTO   1C0
01BA:  INCF   45,F
01BB:  BTFSS  03.2
01BC:  GOTO   1C0
01BD:  INCF   46,F
01BE:  BTFSC  03.2
01BF:  BSF    40.0
01C0:  DECF   04,F
01C1:  MOVF   00,W
01C2:  ADDWF  45,F
01C3:  BTFSS  03.0
01C4:  GOTO   1C8
01C5:  INCF   46,F
01C6:  BTFSC  03.2
01C7:  BSF    40.0
01C8:  DECF   04,F
01C9:  MOVF   00,W
01CA:  BTFSS  00.7
01CB:  XORLW  80
01CC:  ADDWF  46,F
01CD:  BTFSC  03.0
01CE:  BSF    40.0
01CF:  BTFSC  42.4
01D0:  GOTO   0C4
01D1:  BTFSC  42.5
01D2:  GOTO   106
01D3:  GOTO   13C
01D4:  RETURN
01D5:  MOVF   3C,W
01D6:  BTFSC  03.2
01D7:  GOTO   29A
01D8:  MOVWF  48
01D9:  MOVF   40,W
01DA:  BTFSC  03.2
01DB:  GOTO   29A
01DC:  SUBWF  48,F
01DD:  BTFSS  03.0
01DE:  GOTO   1E4
01DF:  MOVLW  7F
01E0:  ADDWF  48,F
01E1:  BTFSC  03.0
01E2:  GOTO   29A
01E3:  GOTO   1EA
01E4:  MOVLW  81
01E5:  SUBWF  48,F
01E6:  BTFSS  03.0
01E7:  GOTO   29A
01E8:  BTFSC  03.2
01E9:  GOTO   29A
01EA:  MOVF   48,W
01EB:  MOVWF  77
01EC:  CLRF   78
01ED:  CLRF   79
01EE:  CLRF   7A
01EF:  CLRF   47
01F0:  MOVF   3D,W
01F1:  MOVWF  46
01F2:  BSF    46.7
01F3:  MOVF   3E,W
01F4:  MOVWF  45
01F5:  MOVF   3F,W
01F6:  MOVWF  44
01F7:  MOVLW  19
01F8:  MOVWF  48
01F9:  MOVF   43,W
01FA:  SUBWF  44,F
01FB:  BTFSC  03.0
01FC:  GOTO   20D
01FD:  MOVLW  01
01FE:  SUBWF  45,F
01FF:  BTFSC  03.0
0200:  GOTO   20D
0201:  SUBWF  46,F
0202:  BTFSC  03.0
0203:  GOTO   20D
0204:  SUBWF  47,F
0205:  BTFSC  03.0
0206:  GOTO   20D
0207:  INCF   47,F
0208:  INCF   46,F
0209:  INCF   45,F
020A:  MOVF   43,W
020B:  ADDWF  44,F
020C:  GOTO   23F
020D:  MOVF   42,W
020E:  SUBWF  45,F
020F:  BTFSC  03.0
0210:  GOTO   228
0211:  MOVLW  01
0212:  SUBWF  46,F
0213:  BTFSC  03.0
0214:  GOTO   228
0215:  SUBWF  47,F
0216:  BTFSC  03.0
0217:  GOTO   228
0218:  INCF   47,F
0219:  INCF   46,F
021A:  MOVF   42,W
021B:  ADDWF  45,F
021C:  MOVF   43,W
021D:  ADDWF  44,F
021E:  BTFSS  03.0
021F:  GOTO   23F
0220:  INCF   45,F
0221:  BTFSS  03.2
0222:  GOTO   23F
0223:  INCF   46,F
0224:  BTFSS  03.2
0225:  GOTO   23F
0226:  INCF   47,F
0227:  GOTO   23F
0228:  MOVF   41,W
0229:  IORLW  80
022A:  SUBWF  46,F
022B:  BTFSC  03.0
022C:  GOTO   23E
022D:  MOVLW  01
022E:  SUBWF  47,F
022F:  BTFSC  03.0
0230:  GOTO   23E
0231:  INCF   47,F
0232:  MOVF   41,W
0233:  IORLW  80
0234:  ADDWF  46,F
0235:  MOVF   42,W
0236:  ADDWF  45,F
0237:  BTFSS  03.0
0238:  GOTO   21C
0239:  INCF   46,F
023A:  BTFSS  03.2
023B:  GOTO   21C
023C:  INCF   47,F
023D:  GOTO   21C
023E:  BSF    7A.0
023F:  DECFSZ 48,F
0240:  GOTO   242
0241:  GOTO   24D
0242:  BCF    03.0
0243:  RLF    44,F
0244:  RLF    45,F
0245:  RLF    46,F
0246:  RLF    47,F
0247:  BCF    03.0
0248:  RLF    7A,F
0249:  RLF    79,F
024A:  RLF    78,F
024B:  RLF    49,F
024C:  GOTO   1F9
024D:  BTFSS  49.0
024E:  GOTO   255
024F:  BCF    03.0
0250:  RRF    78,F
0251:  RRF    79,F
0252:  RRF    7A,F
0253:  RRF    49,F
0254:  GOTO   258
0255:  DECF   77,F
0256:  BTFSC  03.2
0257:  GOTO   29A
0258:  BTFSC  49.7
0259:  GOTO   281
025A:  BCF    03.0
025B:  RLF    44,F
025C:  RLF    45,F
025D:  RLF    46,F
025E:  RLF    47,F
025F:  MOVF   43,W
0260:  SUBWF  44,F
0261:  BTFSC  03.0
0262:  GOTO   26D
0263:  MOVLW  01
0264:  SUBWF  45,F
0265:  BTFSC  03.0
0266:  GOTO   26D
0267:  SUBWF  46,F
0268:  BTFSC  03.0
0269:  GOTO   26D
026A:  SUBWF  47,F
026B:  BTFSS  03.0
026C:  GOTO   290
026D:  MOVF   42,W
026E:  SUBWF  45,F
026F:  BTFSC  03.0
0270:  GOTO   278
0271:  MOVLW  01
0272:  SUBWF  46,F
0273:  BTFSC  03.0
0274:  GOTO   278
0275:  SUBWF  47,F
0276:  BTFSS  03.0
0277:  GOTO   290
0278:  MOVF   41,W
0279:  IORLW  80
027A:  SUBWF  46,F
027B:  BTFSC  03.0
027C:  GOTO   281
027D:  MOVLW  01
027E:  SUBWF  47,F
027F:  BTFSS  03.0
0280:  GOTO   290
0281:  INCF   7A,F
0282:  BTFSS  03.2
0283:  GOTO   290
0284:  INCF   79,F
0285:  BTFSS  03.2
0286:  GOTO   290
0287:  INCF   78,F
0288:  BTFSS  03.2
0289:  GOTO   290
028A:  INCF   77,F
028B:  BTFSC  03.2
028C:  GOTO   29A
028D:  RRF    78,F
028E:  RRF    79,F
028F:  RRF    7A,F
0290:  MOVF   3D,W
0291:  MOVWF  48
0292:  MOVF   41,W
0293:  XORWF  48,F
0294:  BTFSS  48.7
0295:  GOTO   298
0296:  BSF    78.7
0297:  GOTO   29E
0298:  BCF    78.7
0299:  GOTO   29E
029A:  CLRF   77
029B:  CLRF   78
029C:  CLRF   79
029D:  CLRF   7A
029E:  RETURN
....................  
.................... #list 
....................  
.................... #device ADC=8 
.................... #fuses HS,NOWDT 
.................... #use delay(clock=20000000) 
....................  
....................  
.................... int32 TE1, TE2; 
....................  
....................  
.................... //Velocidad sonido: a 20° --------- 343.31 m/s 
.................... //                  a 24° --------- 345.65 m/s 
....................  
.................... void main() 
029F:  MOVF   03,W
02A0:  ANDLW  1F
02A1:  MOVWF  03
02A2:  BSF    03.5
02A3:  BSF    1F.0
02A4:  BSF    1F.1
02A5:  BSF    1F.2
02A6:  BCF    1F.3
02A7:  MOVLW  07
02A8:  MOVWF  1C
02A9:  BCF    03.7
02AA:  MOVLW  CD
02AB:  BCF    03.5
02AC:  MOVWF  37
02AD:  MOVLW  CC
02AE:  MOVWF  36
02AF:  MOVLW  4C
02B0:  MOVWF  35
02B1:  MOVLW  7C
02B2:  MOVWF  34
.................... {  
....................    //D distancia entre los 2 micrófonos (cm) 
....................    float d1, d2, punto, D=0.2; 
....................  
....................    port_b_pullups (TRUE);                  //Habilita pull-up internos del puerto B         
02B3:  BSF    03.5
02B4:  BCF    01.7
....................    enable_interrupts(INT_RB);              // Habilita la interrupcion del puerto B ( RB4 - RB7). 
02B5:  BCF    03.5
02B6:  BSF    0B.3
....................    enable_interrupts(GLOBAL);              // Habilita las interrupciones globales. 
02B7:  MOVLW  C0
02B8:  IORWF  0B,F
....................    ext_int_edge(H_TO_L); 
02B9:  BSF    03.5
02BA:  BCF    01.6
....................    setup_timer_1(T1_INTERNAL|T1_DIV_BY_8); //a 20MHz cuenta de a 1.6uS 
02BB:  MOVLW  B5
02BC:  BCF    03.5
02BD:  MOVWF  10
....................    while(TRUE) 
....................    { 
....................      if(input_state(pin_B4)==0) 
02BE:  BTFSC  06.4
02BF:  GOTO   2D1
....................        {  
....................         TE1=get_timer1(); 
02C0:  MOVF   0F,W
02C1:  MOVWF  7A
02C2:  MOVF   0E,W
02C3:  MOVWF  77
02C4:  MOVF   0F,W
02C5:  SUBWF  7A,W
02C6:  BTFSS  03.2
02C7:  GOTO   2C0
02C8:  MOVF   77,W
02C9:  MOVWF  20
02CA:  MOVF   7A,W
02CB:  MOVWF  21
02CC:  CLRF   22
02CD:  CLRF   23
....................         set_timer1(0); 
02CE:  CLRF   0E
02CF:  CLRF   0F
02D0:  CLRF   0E
....................        } 
....................       
....................      if (input_state(pin_B5)==0) 
02D1:  BTFSC  06.5
02D2:  GOTO   2E4
....................        { 
....................         TE2=get_timer1(); 
02D3:  MOVF   0F,W
02D4:  MOVWF  7A
02D5:  MOVF   0E,W
02D6:  MOVWF  77
02D7:  MOVF   0F,W
02D8:  SUBWF  7A,W
02D9:  BTFSS  03.2
02DA:  GOTO   2D3
02DB:  MOVF   77,W
02DC:  MOVWF  24
02DD:  MOVF   7A,W
02DE:  MOVWF  25
02DF:  CLRF   26
02E0:  CLRF   27
....................         set_timer1(0); 
02E1:  CLRF   0E
02E2:  CLRF   0F
02E3:  CLRF   0E
....................       
....................    } 
....................     If (!TE2)  
02E4:  MOVF   24,F
02E5:  BTFSS  03.2
02E6:  GOTO   35B
02E7:  MOVF   25,F
02E8:  BTFSS  03.2
02E9:  GOTO   35B
02EA:  MOVF   26,F
02EB:  BTFSS  03.2
02EC:  GOTO   35B
02ED:  MOVF   27,F
02EE:  BTFSS  03.2
02EF:  GOTO   35B
....................      { 
....................        d1= (float) 345.65 * TE2 * 0.0000016; 
02F0:  MOVF   27,W
02F1:  MOVWF  3B
02F2:  MOVF   26,W
02F3:  MOVWF  3A
02F4:  MOVF   25,W
02F5:  MOVWF  39
02F6:  MOVF   24,W
02F7:  MOVWF  38
02F8:  CALL   004
02F9:  MOVLW  33
02FA:  MOVWF  3F
02FB:  MOVLW  D3
02FC:  MOVWF  3E
02FD:  MOVLW  2C
02FE:  MOVWF  3D
02FF:  MOVLW  87
0300:  MOVWF  3C
0301:  MOVF   7A,W
0302:  MOVWF  43
0303:  MOVF   79,W
0304:  MOVWF  42
0305:  MOVF   78,W
0306:  MOVWF  41
0307:  MOVF   77,W
0308:  MOVWF  40
0309:  CALL   01F
030A:  MOVF   7A,W
030B:  MOVWF  3B
030C:  MOVF   79,W
030D:  MOVWF  3A
030E:  MOVF   78,W
030F:  MOVWF  39
0310:  MOVF   77,W
0311:  MOVWF  38
0312:  MOVF   7A,W
0313:  MOVWF  3F
0314:  MOVF   79,W
0315:  MOVWF  3E
0316:  MOVF   78,W
0317:  MOVWF  3D
0318:  MOVF   77,W
0319:  MOVWF  3C
031A:  MOVLW  95
031B:  MOVWF  43
031C:  MOVLW  BF
031D:  MOVWF  42
031E:  MOVLW  56
031F:  MOVWF  41
0320:  MOVLW  6B
0321:  MOVWF  40
0322:  CALL   01F
0323:  MOVF   7A,W
0324:  MOVWF  2B
0325:  MOVF   79,W
0326:  MOVWF  2A
0327:  MOVF   78,W
0328:  MOVWF  29
0329:  MOVF   77,W
032A:  MOVWF  28
....................        punto=(float) (D-d1)/2; 
032B:  BSF    03.1
032C:  MOVF   37,W
032D:  MOVWF  3B
032E:  MOVF   36,W
032F:  MOVWF  3A
0330:  MOVF   35,W
0331:  MOVWF  39
0332:  MOVF   34,W
0333:  MOVWF  38
0334:  MOVF   2B,W
0335:  MOVWF  3F
0336:  MOVF   2A,W
0337:  MOVWF  3E
0338:  MOVF   29,W
0339:  MOVWF  3D
033A:  MOVF   28,W
033B:  MOVWF  3C
033C:  CALL   094
033D:  MOVF   7A,W
033E:  MOVWF  3B
033F:  MOVF   79,W
0340:  MOVWF  3A
0341:  MOVF   78,W
0342:  MOVWF  39
0343:  MOVF   77,W
0344:  MOVWF  38
0345:  MOVF   7A,W
0346:  MOVWF  3F
0347:  MOVF   79,W
0348:  MOVWF  3E
0349:  MOVF   78,W
034A:  MOVWF  3D
034B:  MOVF   77,W
034C:  MOVWF  3C
034D:  CLRF   43
034E:  CLRF   42
034F:  CLRF   41
0350:  MOVLW  80
0351:  MOVWF  40
0352:  CALL   1D5
0353:  MOVF   7A,W
0354:  MOVWF  33
0355:  MOVF   79,W
0356:  MOVWF  32
0357:  MOVF   78,W
0358:  MOVWF  31
0359:  MOVF   77,W
035A:  MOVWF  30
....................      } 
....................     If (!TE1)  
035B:  MOVF   20,F
035C:  BTFSS  03.2
035D:  GOTO   3D2
035E:  MOVF   21,F
035F:  BTFSS  03.2
0360:  GOTO   3D2
0361:  MOVF   22,F
0362:  BTFSS  03.2
0363:  GOTO   3D2
0364:  MOVF   23,F
0365:  BTFSS  03.2
0366:  GOTO   3D2
....................      { 
....................       d2= (float) 345.65 * TE1 * 0.0000016; 
0367:  MOVF   23,W
0368:  MOVWF  3B
0369:  MOVF   22,W
036A:  MOVWF  3A
036B:  MOVF   21,W
036C:  MOVWF  39
036D:  MOVF   20,W
036E:  MOVWF  38
036F:  CALL   004
0370:  MOVLW  33
0371:  MOVWF  3F
0372:  MOVLW  D3
0373:  MOVWF  3E
0374:  MOVLW  2C
0375:  MOVWF  3D
0376:  MOVLW  87
0377:  MOVWF  3C
0378:  MOVF   7A,W
0379:  MOVWF  43
037A:  MOVF   79,W
037B:  MOVWF  42
037C:  MOVF   78,W
037D:  MOVWF  41
037E:  MOVF   77,W
037F:  MOVWF  40
0380:  CALL   01F
0381:  MOVF   7A,W
0382:  MOVWF  3B
0383:  MOVF   79,W
0384:  MOVWF  3A
0385:  MOVF   78,W
0386:  MOVWF  39
0387:  MOVF   77,W
0388:  MOVWF  38
0389:  MOVF   7A,W
038A:  MOVWF  3F
038B:  MOVF   79,W
038C:  MOVWF  3E
038D:  MOVF   78,W
038E:  MOVWF  3D
038F:  MOVF   77,W
0390:  MOVWF  3C
0391:  MOVLW  95
0392:  MOVWF  43
0393:  MOVLW  BF
0394:  MOVWF  42
0395:  MOVLW  56
0396:  MOVWF  41
0397:  MOVLW  6B
0398:  MOVWF  40
0399:  CALL   01F
039A:  MOVF   7A,W
039B:  MOVWF  2F
039C:  MOVF   79,W
039D:  MOVWF  2E
039E:  MOVF   78,W
039F:  MOVWF  2D
03A0:  MOVF   77,W
03A1:  MOVWF  2C
....................       punto=(float) (D-d2)/2; 
03A2:  BSF    03.1
03A3:  MOVF   37,W
03A4:  MOVWF  3B
03A5:  MOVF   36,W
03A6:  MOVWF  3A
03A7:  MOVF   35,W
03A8:  MOVWF  39
03A9:  MOVF   34,W
03AA:  MOVWF  38
03AB:  MOVF   2F,W
03AC:  MOVWF  3F
03AD:  MOVF   2E,W
03AE:  MOVWF  3E
03AF:  MOVF   2D,W
03B0:  MOVWF  3D
03B1:  MOVF   2C,W
03B2:  MOVWF  3C
03B3:  CALL   094
03B4:  MOVF   7A,W
03B5:  MOVWF  3B
03B6:  MOVF   79,W
03B7:  MOVWF  3A
03B8:  MOVF   78,W
03B9:  MOVWF  39
03BA:  MOVF   77,W
03BB:  MOVWF  38
03BC:  MOVF   7A,W
03BD:  MOVWF  3F
03BE:  MOVF   79,W
03BF:  MOVWF  3E
03C0:  MOVF   78,W
03C1:  MOVWF  3D
03C2:  MOVF   77,W
03C3:  MOVWF  3C
03C4:  CLRF   43
03C5:  CLRF   42
03C6:  CLRF   41
03C7:  MOVLW  80
03C8:  MOVWF  40
03C9:  CALL   1D5
03CA:  MOVF   7A,W
03CB:  MOVWF  33
03CC:  MOVF   79,W
03CD:  MOVWF  32
03CE:  MOVF   78,W
03CF:  MOVWF  31
03D0:  MOVF   77,W
03D1:  MOVWF  30
....................      } 
03D2:  GOTO   2BE
....................   } 
.................... } 
....................  
03D3:  SLEEP
....................  

Configuration Fuses:
   Word  1: 3F72   HS NOWDT PUT BROWNOUT NOLVP NOCPD NOWRT NODEBUG NOPROTECT
